target datalayout = "e-m:e-p270:32:32-p271:32:32-p272:64:64-i64:64-i128:128-f80:128-n8:16:32:64-S128"
target triple = "x86_64-pc-linux-gnu"

; Function Attrs: mustprogress nounwind uwtable
define noundef i32 @_Z9GetDigitsj(i32 noundef %0) #0 {
  %2 = alloca i32, align 4
  %3 = alloca i32, align 4
  store i32 %0, ptr %2, align 4
  store i32 1, ptr %3, align 4
  br label %4

4:                                                ; preds = %7, %1
  %5 = load i32, ptr %2, align 4
  %6 = icmp uge i32 %5, 10
  br i1 %6, label %7, label %12

7:                                                ; preds = %4
  %8 = load i32, ptr %2, align 4
  %9 = udiv i32 %8, 10
  store i32 %9, ptr %2, align 4
  %10 = load i32, ptr %3, align 4
  %11 = add i32 %10, 1
  store i32 %11, ptr %3, align 4
  br label %4, !llvm.loop !11

12:                                               ; preds = %4
  %13 = load i32, ptr %3, align 4
  ret i32 %13
}