; Function Attrs: mustprogress nofree norecurse nosync nounwind willreturn memory(none) uwtable
define noundef i32 @_Z9GetDigitsj(i32 noundef %0) local_unnamed_addr #0 {
  %2 = icmp ugt i32 %0, 9
  br i1 %2, label %.lr.ph, label %._crit_edge

.lr.ph:                                           ; preds = %1, %.lr.ph
  %.06 = phi i32 [ %4, %.lr.ph ], [ 1, %1 ]
  %.045 = phi i32 [ %3, %.lr.ph ], [ %0, %1 ]
  %3 = udiv i32 %.045, 10
  %4 = add i32 %.06, 1
  %5 = icmp ugt i32 %.045, 99
  br i1 %5, label %.lr.ph, label %._crit_edge, !llvm.loop !11

._crit_edge:                                      ; preds = %.lr.ph, %1
  %.0.lcssa = phi i32 [ 1, %1 ], [ %4, %.lr.ph ]
  ret i32 %.0.lcssa
}